; Function Attrs: nounwind uwtable
define ptr @lv_cache_acquire(ptr noundef %0, ptr noundef %1, ptr noundef %2) local_unnamed_addr #0 {
  %.not = icmp eq ptr %0, null
  br i1 %.not, label %.preheader, label %4

.preheader:                                       ; preds = %3, %.preheader
  br label %.preheader

4:                                                ; preds = %3
  %.not17 = icmp eq ptr %1, null
  br i1 %.not17, label %.preheader19, label %5

.preheader19:                                     ; preds = %4, %.preheader19
  br label %.preheader19

5:                                                ; preds = %4
  %6 = getelementptr inbounds nuw i8, ptr %0, i64 48
  %7 = tail call i32 @lv_mutex_lock(ptr noundef nonnull %6) #5
  %8 = getelementptr inbounds nuw i8, ptr %0, i64 16
  %9 = load i32, ptr %8, align 8, !tbaa !14
  %10 = icmp eq i32 %9, 0
  br i1 %10, label %18, label %11

11:                                               ; preds = %5
  %12 = load ptr, ptr %0, align 8, !tbaa !8
  %13 = getelementptr inbounds nuw i8, ptr %12, i64 24
  %14 = load ptr, ptr %13, align 8, !tbaa !19
  %15 = tail call ptr %14(ptr noundef nonnull %0, ptr noundef nonnull %1, ptr noundef %2) #5
  %.not18 = icmp eq ptr %15, null
  br i1 %.not18, label %18, label %16

16:                                               ; preds = %11
  %17 = tail call ptr @lv_cache_entry_acquire_data(ptr noundef nonnull %15) #5
  br label %18

18:                                               ; preds = %11, %16, %5
  %.0 = phi ptr [ null, %5 ], [ %15, %16 ], [ %15, %11 ]
  %19 = tail call i32 @lv_mutex_unlock(ptr noundef nonnull %6) #5
  ret ptr %.0
}